target datalayout = "e-m:e-p270:32:32-p271:32:32-p272:64:64-i64:64-i128:128-f80:128-n8:16:32:64-S128"
target triple = "x86_64-pc-linux-gnu"

%struct.ossl_param_st = type { ptr, i32, ptr, i64, i64 }

@.str.26 = private unnamed_addr constant [35 x i8] c"../openssl/test/algorithmid_test.c\00", align 1
@.str.29 = private unnamed_addr constant [13 x i8] c"algorithm-id\00", align 1
@.str.31 = private unnamed_addr constant [2 x i8] c"0\00", align 1
@.str.40 = private unnamed_addr constant [54 x i8] c"algid_legacy_len = i2d_X509_ALGOR(alg, &algid_legacy)\00", align 1
@.str.45 = private unnamed_addr constant [59 x i8] c"OSSL_PARAM_locate_const(gettable_params, ALGORITHMID_NAME)\00", align 1
@.str.48 = private unnamed_addr constant [13 x i8] c"algid_legacy\00", align 1
@.str.49 = private unnamed_addr constant [11 x i8] c"algid_prov\00", align 1
@test_spki_aid.algid_prov = internal global [256 x i8] zeroinitializer, align 16
@.str.50 = private unnamed_addr constant [55 x i8] c"X509_PUBKEY_get0_param(NULL, NULL, NULL, &alg, pubkey)\00", align 1
@.str.51 = private unnamed_addr constant [32 x i8] c"pkey = X509_PUBKEY_get0(pubkey)\00", align 1
@.str.52 = private unnamed_addr constant [40 x i8] c"OBJ_obj2txt(name, sizeof(name), oid, 0)\00", align 1
@.str.53 = private unnamed_addr constant [73 x i8] c"The public key found in '%s' doesn't have provider support.  Skipping...\00", align 1
@.str.54 = private unnamed_addr constant [32 x i8] c"EVP_KEYMGMT_is_a(keymgmt, name)\00", align 1
@.str.55 = private unnamed_addr constant [119 x i8] c"The AlgorithmID key type (%s) for the public key found in '%s' doesn't match the key type of the extracted public key.\00", align 1
@.str.56 = private unnamed_addr constant [55 x i8] c"gettable_params = EVP_KEYMGMT_gettable_params(keymgmt)\00", align 1
@.str.57 = private unnamed_addr constant [79 x i8] c"The %s provider keymgmt appears to lack support for algorithm-id.  Skipping...\00", align 1
@.str.58 = private unnamed_addr constant [49 x i8] c"evp_keymgmt_get_params(keymgmt, keydata, params)\00", align 1

; Function Attrs: nounwind uwtable
define internal i32 @test_spki_aid(ptr noundef %0, ptr noundef %1) #0 {
  %3 = alloca ptr, align 8
  %4 = alloca ptr, align 8
  %5 = alloca ptr, align 8
  %6 = alloca ptr, align 8
  %7 = alloca ptr, align 8
  %8 = alloca ptr, align 8
  %9 = alloca ptr, align 8
  %10 = alloca [50 x i8], align 16
  %11 = alloca ptr, align 8
  %12 = alloca i32, align 4
  %13 = alloca i64, align 8
  %14 = alloca ptr, align 8
  %15 = alloca [2 x %struct.ossl_param_st], align 16
  %16 = alloca i32, align 4
  store ptr %0, ptr %3, align 8, !tbaa !17
  store ptr %1, ptr %4, align 8, !tbaa !13
  call void @llvm.lifetime.start.p0(i64 8, ptr %5) #5
  call void @llvm.lifetime.start.p0(i64 8, ptr %6) #5
  store ptr null, ptr %6, align 8, !tbaa !21
  call void @llvm.lifetime.start.p0(i64 8, ptr %7) #5
  store ptr null, ptr %7, align 8, !tbaa !27
  call void @llvm.lifetime.start.p0(i64 8, ptr %8) #5
  store ptr null, ptr %8, align 8, !tbaa !36
  call void @llvm.lifetime.start.p0(i64 8, ptr %9) #5
  store ptr null, ptr %9, align 8, !tbaa !38
  call void @llvm.lifetime.start.p0(i64 50, ptr %10) #5
  call void @llvm.memset.p0.i64(ptr align 16 %10, i8 0, i64 50, i1 false)
  call void @llvm.lifetime.start.p0(i64 8, ptr %11) #5
  store ptr null, ptr %11, align 8, !tbaa !13
  call void @llvm.lifetime.start.p0(i64 4, ptr %12) #5
  store i32 0, ptr %12, align 4, !tbaa !4
  call void @llvm.lifetime.start.p0(i64 8, ptr %13) #5
  store i64 0, ptr %13, align 8, !tbaa !29
  call void @llvm.lifetime.start.p0(i64 8, ptr %14) #5
  store ptr null, ptr %14, align 8, !tbaa !31
  call void @llvm.lifetime.start.p0(i64 80, ptr %15) #5
  call void @llvm.memcpy.p0.p0.i64(ptr align 16 %15, ptr align 16 @__const.test_spki_aid.params, i64 80, i1 false)
  call void @llvm.lifetime.start.p0(i64 4, ptr %16) #5
  store i32 0, ptr %16, align 4, !tbaa !4
  %17 = load ptr, ptr %3, align 8, !tbaa !17
  %18 = call i32 @X509_PUBKEY_get0_param(ptr noundef null, ptr noundef null, ptr noundef null, ptr noundef %6, ptr noundef %17)
  %19 = icmp ne i32 %18, 0
  %20 = zext i1 %19 to i32
  %21 = call i32 @test_true(ptr noundef @.str.26, i32 noundef 43, ptr noundef @.str.50, i32 noundef %20)
  %22 = icmp ne i32 %21, 0
  br i1 %22, label %23, label %28

23:                                               ; preds = %2
  %24 = load ptr, ptr %3, align 8, !tbaa !17
  %25 = call ptr @X509_PUBKEY_get0(ptr noundef %24)
  store ptr %25, ptr %7, align 8, !tbaa !27
  %26 = call i32 @test_ptr(ptr noundef @.str.26, i32 noundef 44, ptr noundef @.str.51, ptr noundef %25)
  %27 = icmp ne i32 %26, 0
  br i1 %27, label %29, label %28

28:                                               ; preds = %23, %2
  br label %94

29:                                               ; preds = %23
  %30 = load ptr, ptr %6, align 8, !tbaa !21
  %31 = call i32 @i2d_X509_ALGOR(ptr noundef %30, ptr noundef %11)
  store i32 %31, ptr %12, align 4, !tbaa !4
  %32 = call i32 @test_int_ge(ptr noundef @.str.26, i32 noundef 47, ptr noundef @.str.40, ptr noundef @.str.31, i32 noundef %31, i32 noundef 0)
  %33 = icmp ne i32 %32, 0
  br i1 %33, label %35, label %34

34:                                               ; preds = %29
  br label %94

35:                                               ; preds = %29
  %36 = load ptr, ptr %6, align 8, !tbaa !21
  call void @X509_ALGOR_get0(ptr noundef %5, ptr noundef null, ptr noundef null, ptr noundef %36)
  %37 = getelementptr inbounds [50 x i8], ptr %10, i64 0, i64 0
  %38 = load ptr, ptr %5, align 8, !tbaa !19
  %39 = call i32 @OBJ_obj2txt(ptr noundef %37, i32 noundef 50, ptr noundef %38, i32 noundef 0)
  %40 = call i32 @test_int_gt(ptr noundef @.str.26, i32 noundef 51, ptr noundef @.str.52, ptr noundef @.str.31, i32 noundef %39, i32 noundef 0)
  %41 = icmp ne i32 %40, 0
  br i1 %41, label %43, label %42

42:                                               ; preds = %35
  br label %94

43:                                               ; preds = %35
  %44 = load ptr, ptr %7, align 8, !tbaa !27
  %45 = call ptr @evp_pkey_export_to_provider(ptr noundef %44, ptr noundef null, ptr noundef %8, ptr noundef null)
  store ptr %45, ptr %9, align 8, !tbaa !38
  %46 = icmp eq ptr %45, null
  br i1 %46, label %47, label %49

47:                                               ; preds = %43
  %48 = load ptr, ptr %4, align 8, !tbaa !13
  call void (ptr, i32, ptr, ...) @test_info(ptr noundef @.str.26, i32 noundef 64, ptr noundef @.str.53, ptr noundef %48)
  store i32 1, ptr %16, align 4, !tbaa !4
  br label %94

49:                                               ; preds = %43
  %50 = load ptr, ptr %8, align 8, !tbaa !36
  %51 = getelementptr inbounds [50 x i8], ptr %10, i64 0, i64 0
  %52 = call i32 @EVP_KEYMGMT_is_a(ptr noundef %50, ptr noundef %51)
  %53 = icmp ne i32 %52, 0
  %54 = zext i1 %53 to i32
  %55 = call i32 @test_true(ptr noundef @.str.26, i32 noundef 69, ptr noundef @.str.54, i32 noundef %54)
  %56 = icmp ne i32 %55, 0
  br i1 %56, label %60, label %57

57:                                               ; preds = %49
  %58 = getelementptr inbounds [50 x i8], ptr %10, i64 0, i64 0
  %59 = load ptr, ptr %4, align 8, !tbaa !13
  call void (ptr, i32, ptr, ...) @test_info(ptr noundef @.str.26, i32 noundef 73, ptr noundef @.str.55, ptr noundef %58, ptr noundef %59)
  store i32 1, ptr %16, align 4, !tbaa !4
  br label %94

60:                                               ; preds = %49
  %61 = load ptr, ptr %8, align 8, !tbaa !36
  %62 = call ptr @EVP_KEYMGMT_gettable_params(ptr noundef %61)
  store ptr %62, ptr %14, align 8, !tbaa !31
  %63 = call i32 @test_ptr(ptr noundef @.str.26, i32 noundef 78, ptr noundef @.str.56, ptr noundef %62)
  %64 = icmp ne i32 %63, 0
  br i1 %64, label %65, label %70

65:                                               ; preds = %60
  %66 = load ptr, ptr %14, align 8, !tbaa !31
  %67 = call ptr @OSSL_PARAM_locate_const(ptr noundef %66, ptr noundef @.str.29)
  %68 = call i32 @test_ptr(ptr noundef @.str.26, i32 noundef 79, ptr noundef @.str.45, ptr noundef %67)
  %69 = icmp ne i32 %68, 0
  br i1 %69, label %72, label %70

70:                                               ; preds = %65, %60
  %71 = getelementptr inbounds [50 x i8], ptr %10, i64 0, i64 0
  call void (ptr, i32, ptr, ...) @test_info(ptr noundef @.str.26, i32 noundef 82, ptr noundef @.str.57, ptr noundef %71)
  store i32 1, ptr %16, align 4, !tbaa !4
  br label %94

72:                                               ; preds = %65
  store i8 0, ptr @test_spki_aid.algid_prov, align 16, !tbaa !33
  %73 = load ptr, ptr %8, align 8, !tbaa !36
  %74 = load ptr, ptr %9, align 8, !tbaa !38
  %75 = getelementptr inbounds [2 x %struct.ossl_param_st], ptr %15, i64 0, i64 0
  %76 = call i32 @evp_keymgmt_get_params(ptr noundef %73, ptr noundef %74, ptr noundef %75)
  %77 = icmp ne i32 %76, 0
  %78 = zext i1 %77 to i32
  %79 = call i32 @test_true(ptr noundef @.str.26, i32 noundef 88, ptr noundef @.str.58, i32 noundef %78)
  %80 = icmp ne i32 %79, 0
  br i1 %80, label %82, label %81

81:                                               ; preds = %72
  br label %94

82:                                               ; preds = %72
  %83 = getelementptr inbounds [2 x %struct.ossl_param_st], ptr %15, i64 0, i64 0
  %84 = getelementptr inbounds nuw %struct.ossl_param_st, ptr %83, i32 0, i32 4
  %85 = load i64, ptr %84, align 16, !tbaa !34
  store i64 %85, ptr %13, align 8, !tbaa !29
  %86 = load ptr, ptr %11, align 8, !tbaa !13
  %87 = load i32, ptr %12, align 4, !tbaa !4
  %88 = sext i32 %87 to i64
  %89 = load i64, ptr %13, align 8, !tbaa !29
  %90 = call i32 @test_mem_eq(ptr noundef @.str.26, i32 noundef 94, ptr noundef @.str.48, ptr noundef @.str.49, ptr noundef %86, i64 noundef %88, ptr noundef @test_spki_aid.algid_prov, i64 noundef %89)
  %91 = icmp ne i32 %90, 0
  br i1 %91, label %92, label %93

92:                                               ; preds = %82
  store i32 1, ptr %16, align 4, !tbaa !4
  br label %93

93:                                               ; preds = %92, %82
  br label %94

94:                                               ; preds = %93, %81, %70, %57, %47, %42, %34, %28
  %95 = load ptr, ptr %8, align 8, !tbaa !36
  call void @EVP_KEYMGMT_free(ptr noundef %95)
  %96 = load ptr, ptr %11, align 8, !tbaa !13
  call void @CRYPTO_free(ptr noundef %96, ptr noundef @.str.26, i32 noundef 99)
  %97 = load i32, ptr %16, align 4, !tbaa !4
  call void @llvm.lifetime.end.p0(i64 4, ptr %16) #5
  call void @llvm.lifetime.end.p0(i64 80, ptr %15) #5
  call void @llvm.lifetime.end.p0(i64 8, ptr %14) #5
  call void @llvm.lifetime.end.p0(i64 8, ptr %13) #5
  call void @llvm.lifetime.end.p0(i64 4, ptr %12) #5
  call void @llvm.lifetime.end.p0(i64 8, ptr %11) #5
  call void @llvm.lifetime.end.p0(i64 50, ptr %10) #5
  call void @llvm.lifetime.end.p0(i64 8, ptr %9) #5
  call void @llvm.lifetime.end.p0(i64 8, ptr %8) #5
  call void @llvm.lifetime.end.p0(i64 8, ptr %7) #5
  call void @llvm.lifetime.end.p0(i64 8, ptr %6) #5
  call void @llvm.lifetime.end.p0(i64 8, ptr %5) #5
  ret i32 %97
}