; Function Attrs: nounwind uwtable
define internal fastcc range(i32 0, 2) i32 @test_spki_aid(ptr noundef %0, ptr noundef %1) unnamed_addr #1 {
  %3 = alloca ptr, align 8
  %4 = alloca ptr, align 8
  %5 = alloca ptr, align 8
  %6 = alloca [50 x i8], align 16
  %7 = alloca ptr, align 8
  %8 = alloca [2 x %struct.ossl_param_st], align 16
  call void @llvm.lifetime.start.p0(i64 8, ptr nonnull %3) #6
  call void @llvm.lifetime.start.p0(i64 8, ptr nonnull %4) #6
  store ptr null, ptr %4, align 8, !tbaa !15
  call void @llvm.lifetime.start.p0(i64 8, ptr nonnull %5) #6
  store ptr null, ptr %5, align 8, !tbaa !25
  call void @llvm.lifetime.start.p0(i64 50, ptr nonnull %6) #6
  call void @llvm.memset.p0.i64(ptr noundef nonnull align 16 dereferenceable(50) %6, i8 0, i64 50, i1 false)
  call void @llvm.lifetime.start.p0(i64 8, ptr nonnull %7) #6
  store ptr null, ptr %7, align 8, !tbaa !11
  call void @llvm.lifetime.start.p0(i64 80, ptr nonnull %8) #6
  call void @llvm.memcpy.p0.p0.i64(ptr noundef nonnull align 16 dereferenceable(80) %8, ptr noundef nonnull align 16 dereferenceable(80) @__const.test_spki_aid.params, i64 80, i1 false)
  %9 = call i32 @X509_PUBKEY_get0_param(ptr noundef null, ptr noundef null, ptr noundef null, ptr noundef nonnull %4, ptr noundef %0) #6
  %10 = icmp ne i32 %9, 0
  %11 = zext i1 %10 to i32
  %12 = call i32 @test_true(ptr noundef nonnull @.str.26, i32 noundef 43, ptr noundef nonnull @.str.50, i32 noundef %11) #6
  %.not = icmp eq i32 %12, 0
  br i1 %.not, label %56, label %13

13:                                               ; preds = %2
  %14 = call ptr @X509_PUBKEY_get0(ptr noundef %0) #6
  %15 = call i32 @test_ptr(ptr noundef nonnull @.str.26, i32 noundef 44, ptr noundef nonnull @.str.51, ptr noundef %14) #6
  %.not10 = icmp eq i32 %15, 0
  br i1 %.not10, label %56, label %16

16:                                               ; preds = %13
  %17 = load ptr, ptr %4, align 8, !tbaa !15
  %18 = call i32 @i2d_X509_ALGOR(ptr noundef %17, ptr noundef nonnull %7) #6
  %19 = call i32 @test_int_ge(ptr noundef nonnull @.str.26, i32 noundef 47, ptr noundef nonnull @.str.40, ptr noundef nonnull @.str.31, i32 noundef %18, i32 noundef 0) #6
  %.not11 = icmp eq i32 %19, 0
  br i1 %.not11, label %56, label %20

20:                                               ; preds = %16
  %21 = load ptr, ptr %4, align 8, !tbaa !15
  call void @X509_ALGOR_get0(ptr noundef nonnull %3, ptr noundef null, ptr noundef null, ptr noundef %21) #6
  %22 = load ptr, ptr %3, align 8, !tbaa !13
  %23 = call i32 @OBJ_obj2txt(ptr noundef nonnull %6, i32 noundef 50, ptr noundef %22, i32 noundef 0) #6
  %24 = call i32 @test_int_gt(ptr noundef nonnull @.str.26, i32 noundef 51, ptr noundef nonnull @.str.52, ptr noundef nonnull @.str.31, i32 noundef %23, i32 noundef 0) #6
  %.not12 = icmp eq i32 %24, 0
  br i1 %.not12, label %56, label %25

25:                                               ; preds = %20
  %26 = call ptr @evp_pkey_export_to_provider(ptr noundef %14, ptr noundef null, ptr noundef nonnull %5, ptr noundef null) #6
  %27 = icmp eq ptr %26, null
  br i1 %27, label %28, label %29

28:                                               ; preds = %25
  call void (ptr, i32, ptr, ...) @test_info(ptr noundef nonnull @.str.26, i32 noundef 64, ptr noundef nonnull @.str.53, ptr noundef %1) #6
  br label %56

29:                                               ; preds = %25
  %30 = load ptr, ptr %5, align 8, !tbaa !25
  %31 = call i32 @EVP_KEYMGMT_is_a(ptr noundef %30, ptr noundef nonnull %6) #6
  %32 = icmp ne i32 %31, 0
  %33 = zext i1 %32 to i32
  %34 = call i32 @test_true(ptr noundef nonnull @.str.26, i32 noundef 69, ptr noundef nonnull @.str.54, i32 noundef %33) #6
  %.not13 = icmp eq i32 %34, 0
  br i1 %.not13, label %35, label %36

35:                                               ; preds = %29
  call void (ptr, i32, ptr, ...) @test_info(ptr noundef nonnull @.str.26, i32 noundef 73, ptr noundef nonnull @.str.55, ptr noundef nonnull %6, ptr noundef %1) #6
  br label %56

36:                                               ; preds = %29
  %37 = load ptr, ptr %5, align 8, !tbaa !25
  %38 = call ptr @EVP_KEYMGMT_gettable_params(ptr noundef %37) #6
  %39 = call i32 @test_ptr(ptr noundef nonnull @.str.26, i32 noundef 78, ptr noundef nonnull @.str.56, ptr noundef %38) #6
  %.not14 = icmp eq i32 %39, 0
  br i1 %.not14, label %43, label %40

40:                                               ; preds = %36
  %41 = call ptr @OSSL_PARAM_locate_const(ptr noundef %38, ptr noundef nonnull @.str.29) #6
  %42 = call i32 @test_ptr(ptr noundef nonnull @.str.26, i32 noundef 79, ptr noundef nonnull @.str.45, ptr noundef %41) #6
  %.not15 = icmp eq i32 %42, 0
  br i1 %.not15, label %43, label %44

43:                                               ; preds = %40, %36
  call void (ptr, i32, ptr, ...) @test_info(ptr noundef nonnull @.str.26, i32 noundef 82, ptr noundef nonnull @.str.57, ptr noundef nonnull %6) #6
  br label %56

44:                                               ; preds = %40
  store i8 0, ptr @test_spki_aid.algid_prov, align 16, !tbaa !21
  %45 = load ptr, ptr %5, align 8, !tbaa !25
  %46 = call i32 @evp_keymgmt_get_params(ptr noundef %45, ptr noundef nonnull %26, ptr noundef nonnull %8) #6
  %47 = icmp ne i32 %46, 0
  %48 = zext i1 %47 to i32
  %49 = call i32 @test_true(ptr noundef nonnull @.str.26, i32 noundef 88, ptr noundef nonnull @.str.58, i32 noundef %48) #6
  %.not16 = icmp eq i32 %49, 0
  br i1 %.not16, label %56, label %50

50:                                               ; preds = %44
  %51 = getelementptr inbounds nuw i8, ptr %8, i64 32
  %52 = load i64, ptr %51, align 16, !tbaa !22
  %53 = load ptr, ptr %7, align 8, !tbaa !11
  %54 = sext i32 %18 to i64
  %55 = call i32 @test_mem_eq(ptr noundef nonnull @.str.26, i32 noundef 94, ptr noundef nonnull @.str.48, ptr noundef nonnull @.str.49, ptr noundef %53, i64 noundef %54, ptr noundef nonnull @test_spki_aid.algid_prov, i64 noundef %52) #6
  %.not17 = icmp ne i32 %55, 0
  %spec.select = zext i1 %.not17 to i32
  br label %56

56:                                               ; preds = %50, %44, %20, %16, %2, %13, %43, %35, %28
  %.0 = phi i32 [ 1, %28 ], [ 0, %44 ], [ 1, %43 ], [ 1, %35 ], [ 0, %20 ], [ 0, %16 ], [ 0, %13 ], [ 0, %2 ], [ %spec.select, %50 ]
  %57 = load ptr, ptr %5, align 8, !tbaa !25
  call void @EVP_KEYMGMT_free(ptr noundef %57) #6
  %58 = load ptr, ptr %7, align 8, !tbaa !11
  call void @CRYPTO_free(ptr noundef %58, ptr noundef nonnull @.str.26, i32 noundef 99) #6
  call void @llvm.lifetime.end.p0(i64 80, ptr nonnull %8) #6
  call void @llvm.lifetime.end.p0(i64 8, ptr nonnull %7) #6
  call void @llvm.lifetime.end.p0(i64 50, ptr nonnull %6) #6
  call void @llvm.lifetime.end.p0(i64 8, ptr nonnull %5) #6
  call void @llvm.lifetime.end.p0(i64 8, ptr nonnull %4) #6
  call void @llvm.lifetime.end.p0(i64 8, ptr nonnull %3) #6
  ret i32 %.0
}